(inode
StartNode
p0
(dp1
S'text'
p2
S'START'
p3
sS'incoming'
p4
(lp5
sS'next'
p6
(inode
Node
p7
(dp8
g2
S'from re import L'
p9
sg4
(lp10
g0
asg6
(inode
Node
p11
(dp12
g2
S"x = 'x'"
p13
sg4
(lp14
g7
asg6
(inode
InputNode
p15
(dp16
g2
S'INPUT age'
p17
sg4
(lp18
g11
asg6
(inode
ConditionalNode
p19
(dp20
g2
S' age < 18:?'
p21
sS'yes'
p22
(inode
ConditionalNode
p23
(dp24
g2
S' x == "x":?'
p25
sg22
(inode
OutputNode
p26
(dp27
g2
S' "no voting for u"'
p28
sg4
(lp29
sg6
(inode
ConnectorNode
p30
(dp31
g2
S''
p32
sg4
(lp33
g26
a(inode
OutputNode
p34
(dp35
g2
S" 'not in your area'"
p36
sg4
(lp37
sg6
g30
sbasg6
(inode
ConnectorNode
p38
(dp39
g2
g32
sg4
(lp40
g30
a(inode
Node
p41
(dp42
g2
S'~print("go vote")'
p43
sg4
(lp44
sg6
g38
sbasg6
(inode
StopNode
p45
(dp46
g2
S'STOP'
p47
sg4
(lp48
g38
asg6
NsbsbsbsbsS'no'
p49
g34
sg4
(lp50
sg6
Nsbsg49
g41
sg4
(lp51
g15
asg6
Nsbsbsbsbsb.