(inode
StartNode
p0
(dp1
S'text'
p2
S'START'
p3
sS'incoming'
p4
(lp5
sS'next'
p6
(inode
Node
p7
(dp8
g2
S'a = 1'
p9
sg4
(lp10
g0
asg6
(inode
ConditionalNode
p11
(dp12
g2
S' x in range(10):?'
p13
sS'yes'
p14
(inode
Node
p15
(dp16
g2
S'a=x+1'
p17
sg4
(lp18
sg6
(inode
Node
p19
(dp20
g2
S"st = 'df greater than 10' #'df = df[df(x>y)]'"
p21
sg4
(lp22
g15
asg6
(inode
ConditionalNode
p23
(dp24
g2
S' x>1:?'
p25
sg14
(inode
Node
p26
(dp27
g2
S'a=0'
p28
sg4
(lp29
sg6
(inode
ConditionalNode
p30
(dp31
g2
S' y in range(11,13):?'
p32
sg14
(inode
Node
p33
(dp34
g2
S'a=a+y'
p35
sg4
(lp36
sg6
g30
sbsS'no'
p37
(inode
ConnectorNode
p38
(dp39
g2
S''
p40
sg4
(lp41
sg6
(inode
ConnectorNode
p42
(dp43
g2
g40
sg4
(lp44
g38
a(inode
Node
p45
(dp46
g2
S'a=10'
p47
sg4
(lp48
sg6
g42
sbasg6
g11
sbsbsg4
(lp49
g33
ag26
asg6
Nsbsbsg37
g45
sg4
(lp50
g19
asg6
Nsbsbsbsg37
(inode
ConnectorNode
p51
(dp52
g2
g40
sg4
(lp53
sg6
(inode
Node
p54
(dp55
g2
S'Q=a+b x'
p56
sg4
(lp57
g51
asg6
(inode
StopNode
p58
(dp59
g2
S'STOP'
p60
sg4
(lp61
g54
asg6
Nsbsbsbsg4
(lp62
g42
ag7
asg6
Nsbsbsb.