(inode
StartNode
p0
(dp1
S'text'
p2
S'START'
p3
sS'incoming'
p4
(lp5
sS'next'
p6
(inode
InputNode
p7
(dp8
g2
S'INPUT a'
p9
sg4
(lp10
g0
asg6
(inode
Node
p11
(dp12
g2
S'b = a - 1'
p13
sg4
(lp14
g7
asg6
(inode
InputNode
p15
(dp16
g2
S'INPUT c'
p17
sg4
(lp18
g11
asg6
(inode
Node
p19
(dp20
g2
S'b = b + c'
p21
sg4
(lp22
g15
asg6
(inode
OutputNode
p23
(dp24
g2
S' b'
p25
sg4
(lp26
g19
asg6
(inode
StopNode
p27
(dp28
g2
S'STOP'
p29
sg4
(lp30
g23
asg6
Nsbsbsbsbsbsbsb.